; Function Attrs: mustprogress nofree norecurse nosync nounwind willreturn memory(read, inaccessiblemem: none) uwtable
define internal range(i32 0, 2) i32 @dsa_missing_parameters(ptr noundef readonly captures(none) %0) #1 {
  %2 = getelementptr inbounds nuw i8, ptr %0, i64 32
  %3 = load ptr, ptr %2, align 8, !tbaa !29
  %4 = icmp eq ptr %3, null
  br i1 %4, label %18, label %5

5:                                                ; preds = %1
  %6 = getelementptr inbounds nuw i8, ptr %3, i64 8
  %7 = load ptr, ptr %6, align 8, !tbaa !37
  %8 = icmp eq ptr %7, null
  br i1 %8, label %18, label %9

9:                                                ; preds = %5
  %10 = getelementptr inbounds nuw i8, ptr %3, i64 16
  %11 = load ptr, ptr %10, align 8, !tbaa !38
  %12 = icmp eq ptr %11, null
  br i1 %12, label %18, label %13

13:                                               ; preds = %9
  %14 = getelementptr inbounds nuw i8, ptr %3, i64 24
  %15 = load ptr, ptr %14, align 8, !tbaa !39
  %16 = icmp eq ptr %15, null
  %17 = zext i1 %16 to i32
  br label %18

18:                                               ; preds = %13, %9, %5, %1
  %19 = phi i32 [ 1, %9 ], [ 1, %5 ], [ 1, %1 ], [ %17, %13 ]
  ret i32 %19
}